target datalayout = "e-m:e-p270:32:32-p271:32:32-p272:64:64-i64:64-i128:128-f80:128-n8:16:32:64-S128"
target triple = "x86_64-pc-linux-gnu"

%struct.Vec_Ptr_t_ = type { i32, i32, ptr }
%struct.Vec_Int_t_ = type { i32, i32, ptr }
%struct.Vec_Vec_t_ = type { i32, i32, ptr }
%struct.Sim_Man_t_ = type { ptr, i32, i32, i32, i32, i32, ptr, ptr, i32, i32, ptr, ptr, ptr, i32, ptr, ptr, ptr, i32, i32, i32, i64, i64, i64, i64, i64 }

; Function Attrs: inlinehint nounwind uwtable
define internal ptr @Vec_VecEntry(ptr noundef %0, i32 noundef %1) #5 {
  %3 = alloca ptr, align 8
  %4 = alloca i32, align 4
  store ptr %0, ptr %3, align 8, !tbaa !63
  store i32 %1, ptr %4, align 4, !tbaa !8
  %5 = load ptr, ptr %3, align 8, !tbaa !63
  %6 = getelementptr inbounds nuw %struct.Vec_Vec_t_, ptr %5, i32 0, i32 2
  %7 = load ptr, ptr %6, align 8, !tbaa !64
  %8 = load i32, ptr %4, align 4, !tbaa !8
  %9 = sext i32 %8 to i64
  %10 = getelementptr inbounds ptr, ptr %7, i64 %9
  %11 = load ptr, ptr %10, align 8, !tbaa !31
  ret ptr %11
}

; Function Attrs: inlinehint nounwind uwtable
define internal i32 @Vec_VecSize(ptr noundef %0) #5 {
  %2 = alloca ptr, align 8
  store ptr %0, ptr %2, align 8, !tbaa !63
  %3 = load ptr, ptr %2, align 8, !tbaa !63
  %4 = getelementptr inbounds nuw %struct.Vec_Vec_t_, ptr %3, i32 0, i32 1
  %5 = load i32, ptr %4, align 4, !tbaa !67
  ret i32 %5
}

; Function Attrs: inlinehint nounwind uwtable
define internal void @Vec_IntFree(ptr noundef %0) #5 {
  %2 = alloca ptr, align 8
  store ptr %0, ptr %2, align 8, !tbaa !60
  %3 = load ptr, ptr %2, align 8, !tbaa !60
  %4 = getelementptr inbounds nuw %struct.Vec_Int_t_, ptr %3, i32 0, i32 2
  %5 = load ptr, ptr %4, align 8, !tbaa !62
  %6 = icmp ne ptr %5, null
  br i1 %6, label %7, label %13

7:                                                ; preds = %1
  %8 = load ptr, ptr %2, align 8, !tbaa !60
  %9 = getelementptr inbounds nuw %struct.Vec_Int_t_, ptr %8, i32 0, i32 2
  %10 = load ptr, ptr %9, align 8, !tbaa !62
  call void @free(ptr noundef %10) #10
  %11 = load ptr, ptr %2, align 8, !tbaa !60
  %12 = getelementptr inbounds nuw %struct.Vec_Int_t_, ptr %11, i32 0, i32 2
  store ptr null, ptr %12, align 8, !tbaa !62
  br label %14

13:                                               ; preds = %1
  br label %14

14:                                               ; preds = %13, %7
  %15 = load ptr, ptr %2, align 8, !tbaa !60
  %16 = icmp ne ptr %15, null
  br i1 %16, label %17, label %19

17:                                               ; preds = %14
  %18 = load ptr, ptr %2, align 8, !tbaa !60
  call void @free(ptr noundef %18) #10
  store ptr null, ptr %2, align 8, !tbaa !60
  br label %20

19:                                               ; preds = %14
  br label %20

20:                                               ; preds = %19, %17
  ret void
}

; Function Attrs: inlinehint nounwind uwtable
define internal void @Vec_PtrFree(ptr noundef %0) #5 {
  %2 = alloca ptr, align 8
  store ptr %0, ptr %2, align 8, !tbaa !58
  %3 = load ptr, ptr %2, align 8, !tbaa !58
  %4 = getelementptr inbounds nuw %struct.Vec_Ptr_t_, ptr %3, i32 0, i32 2
  %5 = load ptr, ptr %4, align 8, !tbaa !29
  %6 = icmp ne ptr %5, null
  br i1 %6, label %7, label %13

7:                                                ; preds = %1
  %8 = load ptr, ptr %2, align 8, !tbaa !58
  %9 = getelementptr inbounds nuw %struct.Vec_Ptr_t_, ptr %8, i32 0, i32 2
  %10 = load ptr, ptr %9, align 8, !tbaa !29
  call void @free(ptr noundef %10) #10
  %11 = load ptr, ptr %2, align 8, !tbaa !58
  %12 = getelementptr inbounds nuw %struct.Vec_Ptr_t_, ptr %11, i32 0, i32 2
  store ptr null, ptr %12, align 8, !tbaa !29
  br label %14

13:                                               ; preds = %1
  br label %14

14:                                               ; preds = %13, %7
  %15 = load ptr, ptr %2, align 8, !tbaa !58
  %16 = icmp ne ptr %15, null
  br i1 %16, label %17, label %19

17:                                               ; preds = %14
  %18 = load ptr, ptr %2, align 8, !tbaa !58
  call void @free(ptr noundef %18) #10
  store ptr null, ptr %2, align 8, !tbaa !58
  br label %20

19:                                               ; preds = %14
  br label %20

20:                                               ; preds = %19, %17
  ret void
}

; Function Attrs: inlinehint nounwind uwtable
define internal void @Vec_VecFree(ptr noundef %0) #5 {
  %2 = alloca ptr, align 8
  %3 = alloca ptr, align 8
  %4 = alloca i32, align 4
  store ptr %0, ptr %2, align 8, !tbaa !63
  call void @llvm.lifetime.start.p0(i64 8, ptr %3) #10
  call void @llvm.lifetime.start.p0(i64 4, ptr %4) #10
  store i32 0, ptr %4, align 4, !tbaa !8
  br label %5

5:                                                ; preds = %22, %1
  %6 = load i32, ptr %4, align 4, !tbaa !8
  %7 = load ptr, ptr %2, align 8, !tbaa !63
  %8 = call i32 @Vec_VecSize(ptr noundef %7)
  %9 = icmp slt i32 %6, %8
  br i1 %9, label %10, label %14

10:                                               ; preds = %5
  %11 = load ptr, ptr %2, align 8, !tbaa !63
  %12 = load i32, ptr %4, align 4, !tbaa !8
  %13 = call ptr @Vec_VecEntry(ptr noundef %11, i32 noundef %12)
  store ptr %13, ptr %3, align 8, !tbaa !58
  br label %14

14:                                               ; preds = %10, %5
  %15 = phi i1 [ false, %5 ], [ true, %10 ]
  br i1 %15, label %16, label %25

16:                                               ; preds = %14
  %17 = load ptr, ptr %3, align 8, !tbaa !58
  %18 = icmp ne ptr %17, null
  br i1 %18, label %19, label %21

19:                                               ; preds = %16
  %20 = load ptr, ptr %3, align 8, !tbaa !58
  call void @Vec_PtrFree(ptr noundef %20)
  br label %21

21:                                               ; preds = %19, %16
  br label %22

22:                                               ; preds = %21
  %23 = load i32, ptr %4, align 4, !tbaa !8
  %24 = add nsw i32 %23, 1
  store i32 %24, ptr %4, align 4, !tbaa !8
  br label %5, !llvm.loop !83

25:                                               ; preds = %14
  %26 = load ptr, ptr %2, align 8, !tbaa !63
  call void @Vec_PtrFree(ptr noundef %26)
  call void @llvm.lifetime.end.p0(i64 4, ptr %4) #10
  call void @llvm.lifetime.end.p0(i64 8, ptr %3) #10
  ret void
}

; Function Attrs: nounwind uwtable
define void @Sim_ManStop(ptr noundef %0) #0 {
  %2 = alloca ptr, align 8
  store ptr %0, ptr %2, align 8, !tbaa !87
  %3 = load ptr, ptr %2, align 8, !tbaa !87
  call void @Sim_ManPrintStats(ptr noundef %3)
  %4 = load ptr, ptr %2, align 8, !tbaa !87
  %5 = getelementptr inbounds nuw %struct.Sim_Man_t_, ptr %4, i32 0, i32 6
  %6 = load ptr, ptr %5, align 8, !tbaa !96
  %7 = icmp ne ptr %6, null
  br i1 %7, label %8, label %12

8:                                                ; preds = %1
  %9 = load ptr, ptr %2, align 8, !tbaa !87
  %10 = getelementptr inbounds nuw %struct.Sim_Man_t_, ptr %9, i32 0, i32 6
  %11 = load ptr, ptr %10, align 8, !tbaa !96
  call void @Sim_UtilInfoFree(ptr noundef %11)
  br label %12

12:                                               ; preds = %8, %1
  %13 = load ptr, ptr %2, align 8, !tbaa !87
  %14 = getelementptr inbounds nuw %struct.Sim_Man_t_, ptr %13, i32 0, i32 7
  %15 = load ptr, ptr %14, align 8, !tbaa !98
  %16 = icmp ne ptr %15, null
  br i1 %16, label %17, label %21

17:                                               ; preds = %12
  %18 = load ptr, ptr %2, align 8, !tbaa !87
  %19 = getelementptr inbounds nuw %struct.Sim_Man_t_, ptr %18, i32 0, i32 7
  %20 = load ptr, ptr %19, align 8, !tbaa !98
  call void @Sim_UtilInfoFree(ptr noundef %20)
  br label %21

21:                                               ; preds = %17, %12
  %22 = load ptr, ptr %2, align 8, !tbaa !87
  %23 = getelementptr inbounds nuw %struct.Sim_Man_t_, ptr %22, i32 0, i32 10
  %24 = load ptr, ptr %23, align 8, !tbaa !101
  %25 = icmp ne ptr %24, null
  br i1 %25, label %26, label %30

26:                                               ; preds = %21
  %27 = load ptr, ptr %2, align 8, !tbaa !87
  %28 = getelementptr inbounds nuw %struct.Sim_Man_t_, ptr %27, i32 0, i32 10
  %29 = load ptr, ptr %28, align 8, !tbaa !101
  call void @Sim_UtilInfoFree(ptr noundef %29)
  br label %30

30:                                               ; preds = %26, %21
  %31 = load ptr, ptr %2, align 8, !tbaa !87
  %32 = getelementptr inbounds nuw %struct.Sim_Man_t_, ptr %31, i32 0, i32 12
  %33 = load ptr, ptr %32, align 8, !tbaa !106
  %34 = icmp ne ptr %33, null
  br i1 %34, label %35, label %39

35:                                               ; preds = %30
  %36 = load ptr, ptr %2, align 8, !tbaa !87
  %37 = getelementptr inbounds nuw %struct.Sim_Man_t_, ptr %36, i32 0, i32 12
  %38 = load ptr, ptr %37, align 8, !tbaa !106
  call void @Vec_VecFree(ptr noundef %38)
  br label %39

39:                                               ; preds = %35, %30
  %40 = load ptr, ptr %2, align 8, !tbaa !87
  %41 = getelementptr inbounds nuw %struct.Sim_Man_t_, ptr %40, i32 0, i32 14
  %42 = load ptr, ptr %41, align 8, !tbaa !103
  %43 = icmp ne ptr %42, null
  br i1 %43, label %44, label %48

44:                                               ; preds = %39
  %45 = load ptr, ptr %2, align 8, !tbaa !87
  %46 = getelementptr inbounds nuw %struct.Sim_Man_t_, ptr %45, i32 0, i32 14
  %47 = load ptr, ptr %46, align 8, !tbaa !103
  call void @Extra_MmFixedStop(ptr noundef %47)
  br label %48

48:                                               ; preds = %44, %39
  %49 = load ptr, ptr %2, align 8, !tbaa !87
  %50 = getelementptr inbounds nuw %struct.Sim_Man_t_, ptr %49, i32 0, i32 15
  %51 = load ptr, ptr %50, align 8, !tbaa !104
  %52 = icmp ne ptr %51, null
  br i1 %52, label %53, label %57

53:                                               ; preds = %48
  %54 = load ptr, ptr %2, align 8, !tbaa !87
  %55 = getelementptr inbounds nuw %struct.Sim_Man_t_, ptr %54, i32 0, i32 15
  %56 = load ptr, ptr %55, align 8, !tbaa !104
  call void @Vec_PtrFree(ptr noundef %56)
  br label %57

57:                                               ; preds = %53, %48
  %58 = load ptr, ptr %2, align 8, !tbaa !87
  %59 = getelementptr inbounds nuw %struct.Sim_Man_t_, ptr %58, i32 0, i32 16
  %60 = load ptr, ptr %59, align 8, !tbaa !105
  %61 = icmp ne ptr %60, null
  br i1 %61, label %62, label %66

62:                                               ; preds = %57
  %63 = load ptr, ptr %2, align 8, !tbaa !87
  %64 = getelementptr inbounds nuw %struct.Sim_Man_t_, ptr %63, i32 0, i32 16
  %65 = load ptr, ptr %64, align 8, !tbaa !105
  call void @Vec_IntFree(ptr noundef %65)
  br label %66

66:                                               ; preds = %62, %57
  %67 = load ptr, ptr %2, align 8, !tbaa !87
  %68 = icmp ne ptr %67, null
  br i1 %68, label %69, label %71

69:                                               ; preds = %66
  %70 = load ptr, ptr %2, align 8, !tbaa !87
  call void @free(ptr noundef %70) #10
  store ptr null, ptr %2, align 8, !tbaa !87
  br label %72

71:                                               ; preds = %66
  br label %72

72:                                               ; preds = %71, %69
  ret void
}