; Function Attrs: nounwind uwtable
define void @Sim_ManStop(ptr noundef %0) local_unnamed_addr #0 {
  tail call void @Sim_ManPrintStats(ptr noundef %0)
  %2 = getelementptr inbounds nuw i8, ptr %0, i64 32
  %3 = load ptr, ptr %2, align 8, !tbaa !94
  %.not = icmp eq ptr %3, null
  br i1 %.not, label %5, label %4

4:                                                ; preds = %1
  tail call void @Sim_UtilInfoFree(ptr noundef nonnull %3) #12
  br label %5

5:                                                ; preds = %4, %1
  %6 = getelementptr inbounds nuw i8, ptr %0, i64 40
  %7 = load ptr, ptr %6, align 8, !tbaa !96
  %.not24 = icmp eq ptr %7, null
  br i1 %.not24, label %9, label %8

8:                                                ; preds = %5
  tail call void @Sim_UtilInfoFree(ptr noundef nonnull %7) #12
  br label %9

9:                                                ; preds = %8, %5
  %10 = getelementptr inbounds nuw i8, ptr %0, i64 56
  %11 = load ptr, ptr %10, align 8, !tbaa !99
  %.not25 = icmp eq ptr %11, null
  br i1 %.not25, label %13, label %12

12:                                               ; preds = %9
  tail call void @Sim_UtilInfoFree(ptr noundef nonnull %11) #12
  br label %13

13:                                               ; preds = %12, %9
  %14 = getelementptr inbounds nuw i8, ptr %0, i64 72
  %15 = load ptr, ptr %14, align 8, !tbaa !104
  %.not26 = icmp eq ptr %15, null
  br i1 %.not26, label %33, label %16

16:                                               ; preds = %13
  %17 = getelementptr i8, ptr %15, i64 4
  %.val11.i = load i32, ptr %17, align 4, !tbaa !59
  %18 = icmp sgt i32 %.val11.i, 0
  br i1 %18, label %.lr.ph.i, label %.critedge.i

.lr.ph.i:                                         ; preds = %16
  %19 = getelementptr i8, ptr %15, i64 8
  br label %20

20:                                               ; preds = %27, %.lr.ph.i
  %.val14.i = phi i32 [ %.val11.i, %.lr.ph.i ], [ %.val.i, %27 ]
  %indvars.iv.i = phi i64 [ 0, %.lr.ph.i ], [ %indvars.iv.next.i, %27 ]
  %.val8.i = load ptr, ptr %19, align 8, !tbaa !58
  %21 = getelementptr inbounds nuw ptr, ptr %.val8.i, i64 %indvars.iv.i
  %22 = load ptr, ptr %21, align 8, !tbaa !47
  %.not.i = icmp eq ptr %22, null
  br i1 %.not.i, label %27, label %23

23:                                               ; preds = %20
  %24 = getelementptr inbounds nuw i8, ptr %22, i64 8
  %25 = load ptr, ptr %24, align 8, !tbaa !38
  %.not.i.i = icmp eq ptr %25, null
  br i1 %.not.i.i, label %Vec_PtrFree.exit.i, label %26

26:                                               ; preds = %23
  tail call void @free(ptr noundef nonnull %25) #12
  br label %Vec_PtrFree.exit.i

Vec_PtrFree.exit.i:                               ; preds = %26, %23
  tail call void @free(ptr noundef nonnull %22) #12
  %.val.pre.i = load i32, ptr %17, align 4, !tbaa !59
  br label %27

27:                                               ; preds = %Vec_PtrFree.exit.i, %20
  %.val.i = phi i32 [ %.val14.i, %20 ], [ %.val.pre.i, %Vec_PtrFree.exit.i ]
  %indvars.iv.next.i = add nuw nsw i64 %indvars.iv.i, 1
  %28 = sext i32 %.val.i to i64
  %29 = icmp slt i64 %indvars.iv.next.i, %28
  br i1 %29, label %20, label %.critedge.i, !llvm.loop !67

.critedge.i:                                      ; preds = %27, %16
  %30 = getelementptr inbounds nuw i8, ptr %15, i64 8
  %31 = load ptr, ptr %30, align 8, !tbaa !38
  %.not.i9.i = icmp eq ptr %31, null
  br i1 %.not.i9.i, label %Vec_VecFree.exit, label %32

32:                                               ; preds = %.critedge.i
  tail call void @free(ptr noundef nonnull %31) #12
  br label %Vec_VecFree.exit

Vec_VecFree.exit:                                 ; preds = %.critedge.i, %32
  tail call void @free(ptr noundef nonnull %15) #12
  br label %33

33:                                               ; preds = %Vec_VecFree.exit, %13
  %34 = getelementptr inbounds nuw i8, ptr %0, i64 88
  %35 = load ptr, ptr %34, align 8, !tbaa !101
  %.not27 = icmp eq ptr %35, null
  br i1 %.not27, label %37, label %36

36:                                               ; preds = %33
  tail call void @Extra_MmFixedStop(ptr noundef nonnull %35) #12
  br label %37

37:                                               ; preds = %36, %33
  %38 = getelementptr inbounds nuw i8, ptr %0, i64 96
  %39 = load ptr, ptr %38, align 8, !tbaa !102
  %.not28 = icmp eq ptr %39, null
  br i1 %.not28, label %44, label %40

40:                                               ; preds = %37
  %41 = getelementptr inbounds nuw i8, ptr %39, i64 8
  %42 = load ptr, ptr %41, align 8, !tbaa !38
  %.not.i31 = icmp eq ptr %42, null
  br i1 %.not.i31, label %Vec_PtrFree.exit, label %43

43:                                               ; preds = %40
  tail call void @free(ptr noundef nonnull %42) #12
  br label %Vec_PtrFree.exit

Vec_PtrFree.exit:                                 ; preds = %40, %43
  tail call void @free(ptr noundef nonnull %39) #12
  br label %44

44:                                               ; preds = %Vec_PtrFree.exit, %37
  %45 = getelementptr inbounds nuw i8, ptr %0, i64 104
  %46 = load ptr, ptr %45, align 8, !tbaa !103
  %.not29 = icmp eq ptr %46, null
  br i1 %.not29, label %51, label %47

47:                                               ; preds = %44
  %48 = getelementptr inbounds nuw i8, ptr %46, i64 8
  %49 = load ptr, ptr %48, align 8, !tbaa !42
  %.not.i32 = icmp eq ptr %49, null
  br i1 %.not.i32, label %Vec_IntFree.exit, label %50

50:                                               ; preds = %47
  tail call void @free(ptr noundef nonnull %49) #12
  br label %Vec_IntFree.exit

Vec_IntFree.exit:                                 ; preds = %47, %50
  tail call void @free(ptr noundef nonnull %46) #12
  br label %51

51:                                               ; preds = %Vec_IntFree.exit, %44
  tail call void @free(ptr noundef nonnull %0) #12
  ret void
}